; Function Attrs: nounwind uwtable
define internal noundef nonnull ptr @atexit_run_exitfuncs(ptr readnone captures(none) %0, ptr readnone captures(none) %1) #0 {
  %3 = tail call align 8 ptr @llvm.threadlocal.address.p0(ptr align 8 @_Py_tss_tstate)
  %4 = load ptr, ptr %3, align 8, !tbaa !4
  %5 = getelementptr inbounds nuw i8, ptr %4, i64 16
  %6 = load ptr, ptr %5, align 8, !tbaa !38
  %7 = getelementptr inbounds nuw i8, ptr %6, i64 10728
  tail call fastcc void @atexit_callfuncs(ptr noundef nonnull %7)
  ret ptr @_Py_NoneStruct
}